; Function Attrs: nounwind uwtable
define internal ptr @typevar_evaluate_bound(ptr noundef readonly captures(none) %0, ptr readnone captures(none) %1) #0 {
  %3 = getelementptr inbounds nuw i8, ptr %0, i64 32
  %4 = load ptr, ptr %3, align 8, !tbaa !121
  %.not = icmp eq ptr %4, null
  br i1 %.not, label %10, label %5

5:                                                ; preds = %2
  %6 = load i32, ptr %4, align 8, !tbaa !27
  %7 = icmp slt i32 %6, 0
  br i1 %7, label %_Py_NewRef.exit, label %8

8:                                                ; preds = %5
  %9 = add nuw i32 %6, 1
  store i32 %9, ptr %4, align 8, !tbaa !27
  br label %_Py_NewRef.exit

10:                                               ; preds = %2
  %11 = getelementptr inbounds nuw i8, ptr %0, i64 24
  %12 = load ptr, ptr %11, align 8, !tbaa !120
  %.not7 = icmp eq ptr %12, null
  br i1 %.not7, label %_Py_NewRef.exit, label %13

13:                                               ; preds = %10
  %14 = tail call align 8 ptr @llvm.threadlocal.address.p0(ptr align 8 @_Py_tss_tstate)
  %15 = load ptr, ptr %14, align 8, !tbaa !28
  %16 = getelementptr inbounds nuw i8, ptr %15, i64 16
  %17 = load ptr, ptr %16, align 8, !tbaa !39
  %18 = getelementptr inbounds nuw i8, ptr %17, i64 224544
  %19 = load ptr, ptr %18, align 8, !tbaa !149
  %20 = tail call ptr @_PyObject_GC_New(ptr noundef %19) #8
  %21 = icmp eq ptr %20, null
  br i1 %21, label %_Py_NewRef.exit, label %22

22:                                               ; preds = %13
  %23 = load i32, ptr %12, align 8, !tbaa !27
  %24 = icmp slt i32 %23, 0
  br i1 %24, label %_Py_NewRef.exit.i, label %25

25:                                               ; preds = %22
  %26 = add nuw i32 %23, 1
  store i32 %26, ptr %12, align 8, !tbaa !27
  br label %_Py_NewRef.exit.i

_Py_NewRef.exit.i:                                ; preds = %25, %22
  %27 = getelementptr inbounds nuw i8, ptr %20, i64 16
  store ptr %12, ptr %27, align 8, !tbaa !151
  %28 = getelementptr i8, ptr %20, i64 -16
  %29 = load ptr, ptr %14, align 8, !tbaa !28
  %30 = getelementptr inbounds nuw i8, ptr %29, i64 16
  %31 = load ptr, ptr %30, align 8, !tbaa !39
  %32 = getelementptr inbounds nuw i8, ptr %31, i64 7424
  %33 = getelementptr inbounds nuw i8, ptr %31, i64 7432
  %34 = load i64, ptr %33, align 8, !tbaa !113
  %35 = inttoptr i64 %34 to ptr
  %36 = ptrtoint ptr %28 to i64
  %37 = load i64, ptr %35, align 8, !tbaa !114
  %38 = and i64 %37, 3
  %39 = or i64 %38, %36
  store i64 %39, ptr %35, align 8, !tbaa !114
  %40 = getelementptr i8, ptr %20, i64 -8
  %41 = load i64, ptr %40, align 8, !tbaa !113
  %42 = and i64 %41, 3
  %43 = or i64 %42, %34
  store i64 %43, ptr %40, align 8, !tbaa !113
  %44 = getelementptr inbounds nuw i8, ptr %31, i64 7632
  %45 = load i32, ptr %44, align 8, !tbaa !115
  %46 = xor i32 %45, 1
  %47 = sext i32 %46 to i64
  %48 = ptrtoint ptr %32 to i64
  %49 = or i64 %47, %48
  store i64 %49, ptr %28, align 8, !tbaa !114
  store i64 %36, ptr %33, align 8, !tbaa !113
  br label %_Py_NewRef.exit

_Py_NewRef.exit:                                  ; preds = %_Py_NewRef.exit.i, %13, %8, %5, %10
  %.0 = phi ptr [ @_Py_NoneStruct, %10 ], [ %4, %5 ], [ %4, %8 ], [ null, %13 ], [ %20, %_Py_NewRef.exit.i ]
  ret ptr %.0
}